; Function Attrs: mustprogress nofree norecurse nosync nounwind willreturn memory(read, inaccessiblemem: none) uwtable
define noundef i64 @_ZNK32pxrInternal_v0_24__pxrReserved__28PcpExpressionVariablesSource7GetHashEv(ptr noundef nonnull readonly align 8 captures(none) dereferenceable(16) %0) local_unnamed_addr #6 align 2 {
  %2 = load ptr, ptr %0, align 8
  %.not = icmp eq ptr %2, null
  br i1 %.not, label %8, label %3

3:                                                ; preds = %1
  %4 = getelementptr inbounds nuw i8, ptr %2, i64 72
  %5 = load i64, ptr %4, align 8
  %6 = mul i64 %5, -7046029254386353067
  %7 = tail call noundef i64 @llvm.bswap.i64(i64 %6)
  br label %8

8:                                                ; preds = %1, %3
  %9 = phi i64 [ %7, %3 ], [ 0, %1 ]
  ret i64 %9
}